; Function Attrs: nofree nounwind uwtable
define range(i64 0, 4294967296) i64 @zfp_decode_block_strided_float_2(ptr noundef readonly captures(none) %0, ptr noundef writeonly captures(none) %1, i64 noundef %2, i64 noundef %3) local_unnamed_addr #0 {
  %5 = alloca [16 x float], align 256
  call void @llvm.lifetime.start.p0(i64 64, ptr nonnull %5) #8
  %6 = call i64 @zfp_decode_block_float_2(ptr noundef %0, ptr noundef nonnull %5)
  %7 = shl nsw i64 %2, 2
  %8 = sub nsw i64 %3, %7
  br label %.preheader.i

.preheader.i:                                     ; preds = %14, %4
  %.019.i = phi i32 [ 0, %4 ], [ %15, %14 ]
  %.01118.i = phi ptr [ %5, %4 ], [ %10, %14 ]
  %.01217.i = phi ptr [ %1, %4 ], [ %16, %14 ]
  br label %9

9:                                                ; preds = %9, %.preheader.i
  %.01016.i = phi i32 [ 0, %.preheader.i ], [ %12, %9 ]
  %.115.i = phi ptr [ %.01118.i, %.preheader.i ], [ %10, %9 ]
  %.11314.i = phi ptr [ %.01217.i, %.preheader.i ], [ %13, %9 ]
  %10 = getelementptr inbounds nuw i8, ptr %.115.i, i64 4
  %11 = load float, ptr %.115.i, align 4, !tbaa !20
  store float %11, ptr %.11314.i, align 4, !tbaa !20
  %12 = add nuw nsw i32 %.01016.i, 1
  %13 = getelementptr inbounds float, ptr %.11314.i, i64 %2
  %exitcond.not.i = icmp eq i32 %12, 4
  br i1 %exitcond.not.i, label %14, label %9

14:                                               ; preds = %9
  %15 = add nuw nsw i32 %.019.i, 1
  %16 = getelementptr inbounds float, ptr %13, i64 %8
  %exitcond21.not.i = icmp eq i32 %15, 4
  br i1 %exitcond21.not.i, label %scatter_float_2.exit, label %.preheader.i

scatter_float_2.exit:                             ; preds = %14
  call void @llvm.lifetime.end.p0(i64 64, ptr nonnull %5) #8
  ret i64 %6
}